target datalayout = "e-m:e-p270:32:32-p271:32:32-p272:64:64-i64:64-i128:128-f80:128-n8:16:32:64-S128"
target triple = "x86_64-pc-linux-gnu"

%"struct.std::_Vector_base.1" = type { %"struct.std::_Vector_base<cv::Vec<unsigned char, 4>, std::allocator<cv::Vec<unsigned char, 4>>>::_Vector_impl" }
%"struct.std::_Vector_base<cv::Vec<unsigned char, 4>, std::allocator<cv::Vec<unsigned char, 4>>>::_Vector_impl" = type { %"struct.std::_Vector_base<cv::Vec<unsigned char, 4>, std::allocator<cv::Vec<unsigned char, 4>>>::_Vector_impl_data" }
%"struct.std::_Vector_base<cv::Vec<unsigned char, 4>, std::allocator<cv::Vec<unsigned char, 4>>>::_Vector_impl_data" = type { ptr, ptr, ptr }
%"class.cv::Vec" = type { %"class.cv::Matx" }
%"class.cv::Matx" = type { [4 x i8] }

; Function Attrs: mustprogress nounwind uwtable
define linkonce_odr hidden noundef nonnull align 1 dereferenceable(4) ptr @_ZNSt6vectorIN2cv3VecIhLi4EEESaIS2_EEixEm(ptr noundef nonnull align 8 dereferenceable(24) %0, i64 noundef %1) #5 comdat align 2 {
  %3 = alloca ptr, align 8
  %4 = alloca i64, align 8
  store ptr %0, ptr %3, align 8, !tbaa !8
  store i64 %1, ptr %4, align 8, !tbaa !28
  %5 = load ptr, ptr %3, align 8
  %6 = getelementptr inbounds nuw %"struct.std::_Vector_base.1", ptr %5, i32 0, i32 0
  %7 = getelementptr inbounds nuw %"struct.std::_Vector_base<cv::Vec<unsigned char, 4>, std::allocator<cv::Vec<unsigned char, 4>>>::_Vector_impl_data", ptr %6, i32 0, i32 0
  %8 = load ptr, ptr %7, align 8, !tbaa !42
  %9 = load i64, ptr %4, align 8, !tbaa !28
  %10 = getelementptr inbounds nuw %"class.cv::Vec", ptr %8, i64 %9
  ret ptr %10
}

; Function Attrs: mustprogress nounwind uwtable
define linkonce_odr hidden noundef i64 @_ZNKSt6vectorIN2cv3VecIhLi4EEESaIS2_EE4sizeEv(ptr noundef nonnull align 8 dereferenceable(24) %0) #5 comdat align 2 {
  %2 = alloca ptr, align 8
  store ptr %0, ptr %2, align 8, !tbaa !8
  %3 = load ptr, ptr %2, align 8
  %4 = getelementptr inbounds nuw %"struct.std::_Vector_base.1", ptr %3, i32 0, i32 0
  %5 = getelementptr inbounds nuw %"struct.std::_Vector_base<cv::Vec<unsigned char, 4>, std::allocator<cv::Vec<unsigned char, 4>>>::_Vector_impl_data", ptr %4, i32 0, i32 1
  %6 = load ptr, ptr %5, align 8, !tbaa !43
  %7 = getelementptr inbounds nuw %"struct.std::_Vector_base.1", ptr %3, i32 0, i32 0
  %8 = getelementptr inbounds nuw %"struct.std::_Vector_base<cv::Vec<unsigned char, 4>, std::allocator<cv::Vec<unsigned char, 4>>>::_Vector_impl_data", ptr %7, i32 0, i32 0
  %9 = load ptr, ptr %8, align 8, !tbaa !42
  %10 = ptrtoint ptr %6 to i64
  %11 = ptrtoint ptr %9 to i64
  %12 = sub i64 %10, %11
  %13 = sdiv exact i64 %12, 4
  ret i64 %13
}

; Function Attrs: mustprogress nounwind uwtable
define hidden void @_ZN2cv8tracking4impl3tld21TLDEnsembleClassifier12stepPrefSuffERSt6vectorINS_3VecIhLi4EEESaIS6_EEiii(ptr noundef nonnull align 8 dereferenceable(24) %0, i32 noundef %1, i32 noundef %2, i32 noundef %3) #5 align 2 {
  %5 = alloca ptr, align 8
  %6 = alloca i32, align 4
  %7 = alloca i32, align 4
  %8 = alloca i32, align 4
  %9 = alloca i32, align 4
  %10 = alloca i32, align 4
  %11 = alloca i32, align 4
  %12 = alloca i32, align 4
  %13 = alloca i32, align 4
  %14 = alloca i32, align 4
  %15 = alloca i32, align 4
  %16 = alloca i32, align 4
  %17 = alloca i32, align 4
  %18 = alloca i32, align 4
  store ptr %0, ptr %5, align 8, !tbaa !8
  store i32 %1, ptr %6, align 4, !tbaa !10
  store i32 %2, ptr %7, align 4, !tbaa !10
  store i32 %3, ptr %8, align 4, !tbaa !10
  call void @llvm.lifetime.start.p0(i64 4, ptr %9) #3
  %19 = load i32, ptr %7, align 4, !tbaa !10
  %20 = load i32, ptr %8, align 4, !tbaa !10
  %21 = sub nsw i32 %19, %20
  store i32 %21, ptr %9, align 4, !tbaa !10
  call void @llvm.lifetime.start.p0(i64 4, ptr %10) #3
  %22 = load i32, ptr %9, align 4, !tbaa !10
  %23 = load i32, ptr %8, align 4, !tbaa !10
  %24 = sub nsw i32 %23, 1
  %25 = sdiv i32 %22, %24
  store i32 %25, ptr %10, align 4, !tbaa !10
  call void @llvm.lifetime.start.p0(i64 4, ptr %11) #3
  %26 = load i32, ptr %9, align 4, !tbaa !10
  %27 = load i32, ptr %8, align 4, !tbaa !10
  %28 = sub nsw i32 %27, 1
  %29 = srem i32 %26, %28
  store i32 %29, ptr %11, align 4, !tbaa !10
  call void @llvm.lifetime.start.p0(i64 4, ptr %12) #3
  %30 = load i32, ptr %10, align 4, !tbaa !10
  store i32 %30, ptr %12, align 4, !tbaa !10
  call void @llvm.lifetime.start.p0(i64 4, ptr %13) #3
  %31 = load i32, ptr %10, align 4, !tbaa !10
  %32 = add nsw i32 %31, 1
  store i32 %32, ptr %13, align 4, !tbaa !10
  call void @llvm.lifetime.start.p0(i64 4, ptr %14) #3
  %33 = load i32, ptr %11, align 4, !tbaa !10
  store i32 %33, ptr %14, align 4, !tbaa !10
  call void @llvm.lifetime.start.p0(i64 4, ptr %15) #3
  %34 = load i32, ptr %8, align 4, !tbaa !10
  %35 = load i32, ptr %14, align 4, !tbaa !10
  %36 = sub nsw i32 %34, %35
  %37 = sub nsw i32 %36, 1
  store i32 %37, ptr %15, align 4, !tbaa !10
  call void @llvm.lifetime.start.p0(i64 4, ptr %16) #3
  %38 = load i32, ptr %14, align 4, !tbaa !10
  %39 = sdiv i32 %38, 2
  store i32 %39, ptr %16, align 4, !tbaa !10
  call void @llvm.lifetime.start.p0(i64 4, ptr %17) #3
  %40 = load i32, ptr %14, align 4, !tbaa !10
  %41 = load i32, ptr %16, align 4, !tbaa !10
  %42 = sub nsw i32 %40, %41
  store i32 %42, ptr %17, align 4, !tbaa !10
  call void @llvm.lifetime.start.p0(i64 4, ptr %18) #3
  store i32 0, ptr %18, align 4, !tbaa !10
  br label %43

43:                                               ; preds = %224, %4
  %44 = load i32, ptr %18, align 4, !tbaa !10
  %45 = load ptr, ptr %5, align 8, !tbaa !8
  %46 = call noundef i64 @_ZNKSt6vectorIN2cv3VecIhLi4EEESaIS2_EE4sizeEv(ptr noundef nonnull align 8 dereferenceable(24) %45) #3
  %47 = trunc i64 %46 to i32
  %48 = icmp slt i32 %44, %47
  br i1 %48, label %50, label %49

49:                                               ; preds = %43
  call void @llvm.lifetime.end.p0(i64 4, ptr %18) #3
  br label %227

50:                                               ; preds = %43
  %51 = load ptr, ptr %5, align 8, !tbaa !8
  %52 = load i32, ptr %18, align 4, !tbaa !10
  %53 = sext i32 %52 to i64
  %54 = call noundef nonnull align 1 dereferenceable(4) ptr @_ZNSt6vectorIN2cv3VecIhLi4EEESaIS2_EEixEm(ptr noundef nonnull align 8 dereferenceable(24) %51, i64 noundef %53) #3
  %55 = getelementptr inbounds nuw %"class.cv::Matx", ptr %54, i32 0, i32 0
  %56 = load i32, ptr %6, align 4, !tbaa !10
  %57 = sext i32 %56 to i64
  %58 = getelementptr inbounds [4 x i8], ptr %55, i64 0, i64 %57
  %59 = load i8, ptr %58, align 1, !tbaa !44
  %60 = zext i8 %59 to i32
  %61 = load i32, ptr %17, align 4, !tbaa !10
  %62 = icmp slt i32 %60, %61
  br i1 %62, label %63, label %96

63:                                               ; preds = %50
  %64 = load ptr, ptr %5, align 8, !tbaa !8
  %65 = load i32, ptr %18, align 4, !tbaa !10
  %66 = sext i32 %65 to i64
  %67 = call noundef nonnull align 1 dereferenceable(4) ptr @_ZNSt6vectorIN2cv3VecIhLi4EEESaIS2_EEixEm(ptr noundef nonnull align 8 dereferenceable(24) %64, i64 noundef %66) #3
  %68 = getelementptr inbounds nuw %"class.cv::Matx", ptr %67, i32 0, i32 0
  %69 = load i32, ptr %6, align 4, !tbaa !10
  %70 = sext i32 %69 to i64
  %71 = getelementptr inbounds [4 x i8], ptr %68, i64 0, i64 %70
  %72 = load i8, ptr %71, align 1, !tbaa !44
  %73 = zext i8 %72 to i32
  %74 = load i32, ptr %13, align 4, !tbaa !10
  %75 = mul nsw i32 %73, %74
  %76 = load ptr, ptr %5, align 8, !tbaa !8
  %77 = load i32, ptr %18, align 4, !tbaa !10
  %78 = sext i32 %77 to i64
  %79 = call noundef nonnull align 1 dereferenceable(4) ptr @_ZNSt6vectorIN2cv3VecIhLi4EEESaIS2_EEixEm(ptr noundef nonnull align 8 dereferenceable(24) %76, i64 noundef %78) #3
  %80 = getelementptr inbounds nuw %"class.cv::Matx", ptr %79, i32 0, i32 0
  %81 = load i32, ptr %6, align 4, !tbaa !10
  %82 = sext i32 %81 to i64
  %83 = getelementptr inbounds [4 x i8], ptr %80, i64 0, i64 %82
  %84 = load i8, ptr %83, align 1, !tbaa !44
  %85 = zext i8 %84 to i32
  %86 = add nsw i32 %75, %85
  %87 = trunc i32 %86 to i8
  %88 = load ptr, ptr %5, align 8, !tbaa !8
  %89 = load i32, ptr %18, align 4, !tbaa !10
  %90 = sext i32 %89 to i64
  %91 = call noundef nonnull align 1 dereferenceable(4) ptr @_ZNSt6vectorIN2cv3VecIhLi4EEESaIS2_EEixEm(ptr noundef nonnull align 8 dereferenceable(24) %88, i64 noundef %90) #3
  %92 = getelementptr inbounds nuw %"class.cv::Matx", ptr %91, i32 0, i32 0
  %93 = load i32, ptr %6, align 4, !tbaa !10
  %94 = sext i32 %93 to i64
  %95 = getelementptr inbounds [4 x i8], ptr %92, i64 0, i64 %94
  store i8 %87, ptr %95, align 1, !tbaa !44
  br label %224

96:                                               ; preds = %50
  %97 = load ptr, ptr %5, align 8, !tbaa !8
  %98 = load i32, ptr %18, align 4, !tbaa !10
  %99 = sext i32 %98 to i64
  %100 = call noundef nonnull align 1 dereferenceable(4) ptr @_ZNSt6vectorIN2cv3VecIhLi4EEESaIS2_EEixEm(ptr noundef nonnull align 8 dereferenceable(24) %97, i64 noundef %99) #3
  %101 = getelementptr inbounds nuw %"class.cv::Matx", ptr %100, i32 0, i32 0
  %102 = load i32, ptr %6, align 4, !tbaa !10
  %103 = sext i32 %102 to i64
  %104 = getelementptr inbounds [4 x i8], ptr %101, i64 0, i64 %103
  %105 = load i8, ptr %104, align 1, !tbaa !44
  %106 = zext i8 %105 to i32
  %107 = load i32, ptr %16, align 4, !tbaa !10
  %108 = load i32, ptr %15, align 4, !tbaa !10
  %109 = add nsw i32 %107, %108
  %110 = icmp slt i32 %106, %109
  br i1 %110, label %111, label %150

111:                                              ; preds = %96
  %112 = load i32, ptr %16, align 4, !tbaa !10
  %113 = load i32, ptr %13, align 4, !tbaa !10
  %114 = mul nsw i32 %112, %113
  %115 = load ptr, ptr %5, align 8, !tbaa !8
  %116 = load i32, ptr %18, align 4, !tbaa !10
  %117 = sext i32 %116 to i64
  %118 = call noundef nonnull align 1 dereferenceable(4) ptr @_ZNSt6vectorIN2cv3VecIhLi4EEESaIS2_EEixEm(ptr noundef nonnull align 8 dereferenceable(24) %115, i64 noundef %117) #3
  %119 = getelementptr inbounds nuw %"class.cv::Matx", ptr %118, i32 0, i32 0
  %120 = load i32, ptr %6, align 4, !tbaa !10
  %121 = sext i32 %120 to i64
  %122 = getelementptr inbounds [4 x i8], ptr %119, i64 0, i64 %121
  %123 = load i8, ptr %122, align 1, !tbaa !44
  %124 = zext i8 %123 to i32
  %125 = load i32, ptr %16, align 4, !tbaa !10
  %126 = sub nsw i32 %124, %125
  %127 = load i32, ptr %12, align 4, !tbaa !10
  %128 = mul nsw i32 %126, %127
  %129 = add nsw i32 %114, %128
  %130 = load ptr, ptr %5, align 8, !tbaa !8
  %131 = load i32, ptr %18, align 4, !tbaa !10
  %132 = sext i32 %131 to i64
  %133 = call noundef nonnull align 1 dereferenceable(4) ptr @_ZNSt6vectorIN2cv3VecIhLi4EEESaIS2_EEixEm(ptr noundef nonnull align 8 dereferenceable(24) %130, i64 noundef %132) #3
  %134 = getelementptr inbounds nuw %"class.cv::Matx", ptr %133, i32 0, i32 0
  %135 = load i32, ptr %6, align 4, !tbaa !10
  %136 = sext i32 %135 to i64
  %137 = getelementptr inbounds [4 x i8], ptr %134, i64 0, i64 %136
  %138 = load i8, ptr %137, align 1, !tbaa !44
  %139 = zext i8 %138 to i32
  %140 = add nsw i32 %129, %139
  %141 = trunc i32 %140 to i8
  %142 = load ptr, ptr %5, align 8, !tbaa !8
  %143 = load i32, ptr %18, align 4, !tbaa !10
  %144 = sext i32 %143 to i64
  %145 = call noundef nonnull align 1 dereferenceable(4) ptr @_ZNSt6vectorIN2cv3VecIhLi4EEESaIS2_EEixEm(ptr noundef nonnull align 8 dereferenceable(24) %142, i64 noundef %144) #3
  %146 = getelementptr inbounds nuw %"class.cv::Matx", ptr %145, i32 0, i32 0
  %147 = load i32, ptr %6, align 4, !tbaa !10
  %148 = sext i32 %147 to i64
  %149 = getelementptr inbounds [4 x i8], ptr %146, i64 0, i64 %148
  store i8 %141, ptr %149, align 1, !tbaa !44
  br label %224

150:                                              ; preds = %96
  %151 = load ptr, ptr %5, align 8, !tbaa !8
  %152 = load i32, ptr %18, align 4, !tbaa !10
  %153 = sext i32 %152 to i64
  %154 = call noundef nonnull align 1 dereferenceable(4) ptr @_ZNSt6vectorIN2cv3VecIhLi4EEESaIS2_EEixEm(ptr noundef nonnull align 8 dereferenceable(24) %151, i64 noundef %153) #3
  %155 = getelementptr inbounds nuw %"class.cv::Matx", ptr %154, i32 0, i32 0
  %156 = load i32, ptr %6, align 4, !tbaa !10
  %157 = sext i32 %156 to i64
  %158 = getelementptr inbounds [4 x i8], ptr %155, i64 0, i64 %157
  %159 = load i8, ptr %158, align 1, !tbaa !44
  %160 = zext i8 %159 to i32
  %161 = load i32, ptr %16, align 4, !tbaa !10
  %162 = load i32, ptr %15, align 4, !tbaa !10
  %163 = add nsw i32 %161, %162
  %164 = load i32, ptr %17, align 4, !tbaa !10
  %165 = add nsw i32 %163, %164
  %166 = icmp slt i32 %160, %165
  br i1 %166, label %167, label %212

167:                                              ; preds = %150
  %168 = load i32, ptr %16, align 4, !tbaa !10
  %169 = load i32, ptr %13, align 4, !tbaa !10
  %170 = mul nsw i32 %168, %169
  %171 = load i32, ptr %15, align 4, !tbaa !10
  %172 = load i32, ptr %12, align 4, !tbaa !10
  %173 = mul nsw i32 %171, %172
  %174 = add nsw i32 %170, %173
  %175 = load ptr, ptr %5, align 8, !tbaa !8
  %176 = load i32, ptr %18, align 4, !tbaa !10
  %177 = sext i32 %176 to i64
  %178 = call noundef nonnull align 1 dereferenceable(4) ptr @_ZNSt6vectorIN2cv3VecIhLi4EEESaIS2_EEixEm(ptr noundef nonnull align 8 dereferenceable(24) %175, i64 noundef %177) #3
  %179 = getelementptr inbounds nuw %"class.cv::Matx", ptr %178, i32 0, i32 0
  %180 = load i32, ptr %6, align 4, !tbaa !10
  %181 = sext i32 %180 to i64
  %182 = getelementptr inbounds [4 x i8], ptr %179, i64 0, i64 %181
  %183 = load i8, ptr %182, align 1, !tbaa !44
  %184 = zext i8 %183 to i32
  %185 = load i32, ptr %16, align 4, !tbaa !10
  %186 = load i32, ptr %15, align 4, !tbaa !10
  %187 = add nsw i32 %185, %186
  %188 = sub nsw i32 %184, %187
  %189 = load i32, ptr %13, align 4, !tbaa !10
  %190 = mul nsw i32 %188, %189
  %191 = add nsw i32 %174, %190
  %192 = load ptr, ptr %5, align 8, !tbaa !8
  %193 = load i32, ptr %18, align 4, !tbaa !10
  %194 = sext i32 %193 to i64
  %195 = call noundef nonnull align 1 dereferenceable(4) ptr @_ZNSt6vectorIN2cv3VecIhLi4EEESaIS2_EEixEm(ptr noundef nonnull align 8 dereferenceable(24) %192, i64 noundef %194) #3
  %196 = getelementptr inbounds nuw %"class.cv::Matx", ptr %195, i32 0, i32 0
  %197 = load i32, ptr %6, align 4, !tbaa !10
  %198 = sext i32 %197 to i64
  %199 = getelementptr inbounds [4 x i8], ptr %196, i64 0, i64 %198
  %200 = load i8, ptr %199, align 1, !tbaa !44
  %201 = zext i8 %200 to i32
  %202 = add nsw i32 %191, %201
  %203 = trunc i32 %202 to i8
  %204 = load ptr, ptr %5, align 8, !tbaa !8
  %205 = load i32, ptr %18, align 4, !tbaa !10
  %206 = sext i32 %205 to i64
  %207 = call noundef nonnull align 1 dereferenceable(4) ptr @_ZNSt6vectorIN2cv3VecIhLi4EEESaIS2_EEixEm(ptr noundef nonnull align 8 dereferenceable(24) %204, i64 noundef %206) #3
  %208 = getelementptr inbounds nuw %"class.cv::Matx", ptr %207, i32 0, i32 0
  %209 = load i32, ptr %6, align 4, !tbaa !10
  %210 = sext i32 %209 to i64
  %211 = getelementptr inbounds [4 x i8], ptr %208, i64 0, i64 %210
  store i8 %203, ptr %211, align 1, !tbaa !44
  br label %224

212:                                              ; preds = %150
  %213 = load i32, ptr %7, align 4, !tbaa !10
  %214 = sub nsw i32 %213, 1
  %215 = trunc i32 %214 to i8
  %216 = load ptr, ptr %5, align 8, !tbaa !8
  %217 = load i32, ptr %18, align 4, !tbaa !10
  %218 = sext i32 %217 to i64
  %219 = call noundef nonnull align 1 dereferenceable(4) ptr @_ZNSt6vectorIN2cv3VecIhLi4EEESaIS2_EEixEm(ptr noundef nonnull align 8 dereferenceable(24) %216, i64 noundef %218) #3
  %220 = getelementptr inbounds nuw %"class.cv::Matx", ptr %219, i32 0, i32 0
  %221 = load i32, ptr %6, align 4, !tbaa !10
  %222 = sext i32 %221 to i64
  %223 = getelementptr inbounds [4 x i8], ptr %220, i64 0, i64 %222
  store i8 %215, ptr %223, align 1, !tbaa !44
  br label %224

224:                                              ; preds = %212, %167, %111, %63
  %225 = load i32, ptr %18, align 4, !tbaa !10
  %226 = add nsw i32 %225, 1
  store i32 %226, ptr %18, align 4, !tbaa !10
  br label %43, !llvm.loop !45

227:                                              ; preds = %49
  call void @llvm.lifetime.end.p0(i64 4, ptr %17) #3
  call void @llvm.lifetime.end.p0(i64 4, ptr %16) #3
  call void @llvm.lifetime.end.p0(i64 4, ptr %15) #3
  call void @llvm.lifetime.end.p0(i64 4, ptr %14) #3
  call void @llvm.lifetime.end.p0(i64 4, ptr %13) #3
  call void @llvm.lifetime.end.p0(i64 4, ptr %12) #3
  call void @llvm.lifetime.end.p0(i64 4, ptr %11) #3
  call void @llvm.lifetime.end.p0(i64 4, ptr %10) #3
  call void @llvm.lifetime.end.p0(i64 4, ptr %9) #3
  ret void
}