; Function Attrs: mustprogress nofree norecurse nosync nounwind memory(readwrite, inaccessiblemem: none) uwtable
define hidden void @_ZN2cv8tracking4impl3tld21TLDEnsembleClassifier12stepPrefSuffERSt6vectorINS_3VecIhLi4EEESaIS6_EEiii(ptr noundef nonnull readonly align 8 captures(none) dereferenceable(24) %0, i32 noundef %1, i32 noundef %2, i32 noundef %3) local_unnamed_addr #5 align 2 {
  %5 = sub nsw i32 %2, %3
  %6 = add nsw i32 %3, -1
  %7 = sdiv i32 %5, %6
  %8 = srem i32 %5, %6
  %9 = add nsw i32 %7, 1
  %10 = sdiv i32 %8, 2
  %11 = sub nsw i32 %8, %10
  %12 = getelementptr inbounds nuw i8, ptr %0, i64 8
  %13 = load ptr, ptr %12, align 8, !tbaa !27
  %14 = load ptr, ptr %0, align 8, !tbaa !26
  %15 = ptrtoint ptr %13 to i64
  %16 = ptrtoint ptr %14 to i64
  %17 = sub i64 %15, %16
  %18 = lshr exact i64 %17, 2
  %19 = trunc i64 %18 to i32
  %20 = icmp sgt i32 %19, 0
  br i1 %20, label %.lr.ph, label %._crit_edge

.lr.ph:                                           ; preds = %4
  %21 = xor i32 %8, -1
  %22 = add i32 %3, %21
  %23 = sext i32 %1 to i64
  %24 = add nsw i32 %10, %22
  %25 = trunc i32 %2 to i8
  %26 = add i8 %25, -1
  %27 = mul nsw i32 %22, %7
  %28 = mul nsw i32 %10, %9
  %29 = trunc i32 %9 to i8
  %30 = add i8 %29, 1
  br label %31

._crit_edge:                                      ; preds = %55, %4
  ret void

31:                                               ; preds = %.lr.ph, %55
  %indvars.iv = phi i64 [ 0, %.lr.ph ], [ %indvars.iv.next, %55 ]
  %32 = phi ptr [ %14, %.lr.ph ], [ %57, %55 ]
  %33 = getelementptr inbounds nuw %"class.cv::Vec", ptr %32, i64 %indvars.iv
  %34 = getelementptr inbounds [4 x i8], ptr %33, i64 0, i64 %23
  %35 = load i8, ptr %34, align 1, !tbaa !28
  %36 = zext i8 %35 to i32
  %37 = icmp sgt i32 %11, %36
  br i1 %37, label %38, label %40

38:                                               ; preds = %31
  %39 = mul i8 %35, %30
  br label %55

40:                                               ; preds = %31
  %41 = icmp sgt i32 %24, %36
  br i1 %41, label %42, label %48

42:                                               ; preds = %40
  %43 = sub nsw i32 %36, %10
  %44 = mul nsw i32 %43, %7
  %45 = add nsw i32 %44, %28
  %46 = trunc i32 %45 to i8
  %47 = add i8 %35, %46
  br label %55

48:                                               ; preds = %40
  %49 = icmp sgt i32 %6, %36
  br i1 %49, label %50, label %55

50:                                               ; preds = %48
  %51 = sub nsw i32 %36, %24
  %reass.add = add i32 %51, %10
  %reass.mul = mul i32 %reass.add, %9
  %52 = add i32 %reass.mul, %27
  %53 = trunc i32 %52 to i8
  %54 = add i8 %35, %53
  br label %55

55:                                               ; preds = %48, %50, %42, %38
  %.sink = phi i8 [ %54, %50 ], [ %47, %42 ], [ %39, %38 ], [ %26, %48 ]
  store i8 %.sink, ptr %34, align 1, !tbaa !28
  %indvars.iv.next = add nuw nsw i64 %indvars.iv, 1
  %56 = load ptr, ptr %12, align 8, !tbaa !27
  %57 = load ptr, ptr %0, align 8, !tbaa !26
  %58 = ptrtoint ptr %56 to i64
  %59 = ptrtoint ptr %57 to i64
  %60 = sub i64 %58, %59
  %sext = shl i64 %60, 30
  %61 = ashr i64 %sext, 32
  %62 = icmp slt i64 %indvars.iv.next, %61
  br i1 %62, label %31, label %._crit_edge, !llvm.loop !29
}